; ModuleID = '34/189.c'
source_filename = "34/189.c"
target datalayout = "e-m:e-p270:32:32-p271:32:32-p272:64:64-i64:64-f80:128-n8:16:32:64-S128"
target triple = "x86_64-pc-linux-gnu"

@.str = private unnamed_addr constant [3 x i8] c"%d\00", align 1
@.str.1 = private unnamed_addr constant [5 x i8] c"End\0A\00", align 1
@.str.2 = private unnamed_addr constant [9 x i8] c"%d/2=%d\0A\00", align 1
@.str.3 = private unnamed_addr constant [11 x i8] c"%d*3+1=%d\0A\00", align 1

; Function Attrs: noinline nounwind uwtable
define dso_local void @main() #0 {
  %1 = alloca i32, align 4
  %2 = alloca i32, align 4
  %3 = call i32 (i8*, ...) @__isoc99_scanf(i8* getelementptr inbounds ([3 x i8], [3 x i8]* @.str, i64 0, i64 0), i32* %1)
  %4 = load i32, i32* %1, align 4
  %5 = icmp eq i32 %4, 1
  br i1 %5, label %6, label %8

6:                                                ; preds = %0
  %7 = call i32 (i8*, ...) @printf(i8* getelementptr inbounds ([5 x i8], [5 x i8]* @.str.1, i64 0, i64 0))
  br label %27

8:                                                ; preds = %0
  br label %9

9:                                                ; preds = %24, %8
  %10 = load i32, i32* %1, align 4
  %11 = icmp ne i32 %10, 1
  br i1 %11, label %12, label %25

12:                                               ; preds = %9
  %13 = load i32, i32* %1, align 4
  %14 = srem i32 %13, 2
  %15 = icmp eq i32 %14, 0
  br i1 %15, label %16, label %20

16:                                               ; preds = %12
  %17 = load i32, i32* %1, align 4
  call void @print1(i32 %17)
  %18 = load i32, i32* %1, align 4
  %19 = call i32 @printf1(i32 %18)
  store i32 %19, i32* %1, align 4
  br label %24

20:                                               ; preds = %12
  %21 = load i32, i32* %1, align 4
  call void @print2(i32 %21)
  %22 = load i32, i32* %1, align 4
  %23 = call i32 @printf2(i32 %22)
  store i32 %23, i32* %1, align 4
  br label %24

24:                                               ; preds = %20, %16
  br label %9

25:                                               ; preds = %9
  %26 = call i32 (i8*, ...) @printf(i8* getelementptr inbounds ([5 x i8], [5 x i8]* @.str.1, i64 0, i64 0))
  br label %27

27:                                               ; preds = %25, %6
  ret void
}

declare dso_local i32 @__isoc99_scanf(i8*, ...) #1

declare dso_local i32 @printf(i8*, ...) #1

; Function Attrs: noinline nounwind uwtable
define dso_local void @print1(i32 %0) #0 {
  %2 = alloca i32, align 4
  store i32 %0, i32* %2, align 4
  %3 = load i32, i32* %2, align 4
  %4 = load i32, i32* %2, align 4
  %5 = sdiv i32 %4, 2
  %6 = call i32 (i8*, ...) @printf(i8* getelementptr inbounds ([9 x i8], [9 x i8]* @.str.2, i64 0, i64 0), i32 %3, i32 %5)
  ret void
}

; Function Attrs: noinline nounwind uwtable
define dso_local i32 @printf1(i32 %0) #0 {
  %2 = alloca i32, align 4
  %3 = alloca i32, align 4
  store i32 %0, i32* %2, align 4
  %4 = load i32, i32* %2, align 4
  %5 = sdiv i32 %4, 2
  store i32 %5, i32* %3, align 4
  %6 = load i32, i32* %3, align 4
  ret i32 %6
}

; Function Attrs: noinline nounwind uwtable
define dso_local void @print2(i32 %0) #0 {
  %2 = alloca i32, align 4
  store i32 %0, i32* %2, align 4
  %3 = load i32, i32* %2, align 4
  %4 = load i32, i32* %2, align 4
  %5 = mul nsw i32 %4, 3
  %6 = add nsw i32 %5, 1
  %7 = call i32 (i8*, ...) @printf(i8* getelementptr inbounds ([11 x i8], [11 x i8]* @.str.3, i64 0, i64 0), i32 %3, i32 %6)
  ret void
}

; Function Attrs: noinline nounwind uwtable
define dso_local i32 @printf2(i32 %0) #0 {
  %2 = alloca i32, align 4
  %3 = alloca i32, align 4
  store i32 %0, i32* %2, align 4
  %4 = load i32, i32* %2, align 4
  %5 = mul nsw i32 %4, 3
  %6 = add nsw i32 %5, 1
  store i32 %6, i32* %3, align 4
  %7 = load i32, i32* %3, align 4
  ret i32 %7
}


!llvm.module.flags = !{!0}
!llvm.ident = !{!1}

!0 = !{i32 1, !"wchar_size", i32 4}
!1 = !{!"clang version 10.0.0-4ubuntu1 "}
